; Function Attrs: mustprogress nounwind uwtable
define hidden i32 @pj_wkt1_lex(ptr nocapture noundef readnone %0, ptr nocapture noundef %1) local_unnamed_addr #3 {
  %3 = getelementptr inbounds i8, ptr %1, i64 16
  %4 = load ptr, ptr %3, align 8
  br label %5

5:                                                ; preds = %.critedge, %2
  %.0 = phi ptr [ %4, %2 ], [ %7, %.critedge ]
  %6 = load i8, ptr %.0, align 1
  switch i8 %6, label %8 [
    i8 32, label %.critedge
    i8 9, label %.critedge
    i8 10, label %.critedge
    i8 13, label %.critedge
  ]

.critedge:                                        ; preds = %5, %5, %5, %5
  %7 = getelementptr inbounds i8, ptr %.0, i64 1
  br label %5, !llvm.loop !4

8:                                                ; preds = %5
  %9 = getelementptr inbounds i8, ptr %1, i64 8
  store ptr %.0, ptr %9, align 8
  %10 = load i8, ptr %.0, align 1
  %11 = icmp eq i8 %10, 0
  br i1 %11, label %12, label %13

12:                                               ; preds = %8
  store ptr %.0, ptr %3, align 8
  br label %71

13:                                               ; preds = %8
  %14 = sext i8 %10 to i32
  %15 = tail call i32 @isalpha(i32 noundef %14) #8
  %.not = icmp eq i32 %15, 0
  br i1 %.not, label %.loopexit, label %.preheader125

.preheader125:                                    ; preds = %13, %29
  %.087132 = phi i64 [ %30, %29 ], [ 0, %13 ]
  %16 = getelementptr inbounds [26 x %struct.osr_cs_wkt_tokens], ptr @_ZL6tokens, i64 0, i64 %.087132
  %17 = load ptr, ptr %16, align 16
  %18 = tail call noundef zeroext i1 @_ZN5osgeo4proj8internal14ci_starts_withEPKcS3_(ptr noundef nonnull %.0, ptr noundef %17) #7
  br i1 %18, label %19, label %29

19:                                               ; preds = %.preheader125
  %20 = tail call i64 @strlen(ptr noundef nonnull dereferenceable(1) %17) #8
  %21 = getelementptr inbounds i8, ptr %.0, i64 %20
  %22 = load i8, ptr %21, align 1
  %23 = sext i8 %22 to i32
  %24 = tail call i32 @isalpha(i32 noundef %23) #8
  %.not108 = icmp eq i32 %24, 0
  br i1 %.not108, label %25, label %29

25:                                               ; preds = %19
  %26 = getelementptr inbounds i8, ptr %.0, i64 %20
  store ptr %26, ptr %3, align 8
  %27 = getelementptr inbounds i8, ptr %16, i64 8
  %28 = load i32, ptr %27, align 8
  br label %71

29:                                               ; preds = %.preheader125, %19
  %30 = add nuw nsw i64 %.087132, 1
  %exitcond.not = icmp eq i64 %30, 26
  br i1 %exitcond.not, label %.loopexit.loopexit, label %.preheader125, !llvm.loop !6

.loopexit.loopexit:                               ; preds = %29
  %.pre = load i8, ptr %.0, align 1
  br label %.loopexit

.loopexit:                                        ; preds = %.loopexit.loopexit, %13
  %31 = phi i8 [ %.pre, %.loopexit.loopexit ], [ %10, %13 ]
  switch i8 %31, label %40 [
    i8 34, label %.preheader124
    i8 45, label %36
    i8 43, label %36
  ]

.preheader124:                                    ; preds = %.loopexit, %.preheader124
  %.0.pn107 = phi ptr [ %.1, %.preheader124 ], [ %.0, %.loopexit ]
  %.1 = getelementptr inbounds i8, ptr %.0.pn107, i64 1
  %32 = load i8, ptr %.1, align 1
  switch i8 %32, label %.preheader124 [
    i8 0, label %33
    i8 34, label %34
  ]

33:                                               ; preds = %.preheader124
  store ptr %.1, ptr %3, align 8
  br label %71

34:                                               ; preds = %.preheader124
  %35 = getelementptr inbounds i8, ptr %.0.pn107, i64 2
  store ptr %35, ptr %3, align 8
  br label %71

36:                                               ; preds = %.loopexit, %.loopexit
  %37 = getelementptr inbounds i8, ptr %.0, i64 1
  %38 = load i8, ptr %37, align 1
  %39 = add i8 %38, -48
  %or.cond = icmp ult i8 %39, 10
  br i1 %or.cond, label %42, label %.thread120

40:                                               ; preds = %.loopexit
  %41 = add i8 %31, -48
  %or.cond109 = icmp ult i8 %41, 10
  br i1 %or.cond109, label %42, label %62

42:                                               ; preds = %40, %36
  switch i8 %31, label %.preheader153 [
    i8 45, label %43
    i8 43, label %43
  ]

43:                                               ; preds = %42, %42
  %44 = getelementptr inbounds i8, ptr %.0, i64 1
  br label %.preheader153

.preheader153:                                    ; preds = %42, %43
  %.3.ph = phi ptr [ %.0, %42 ], [ %44, %43 ]
  br label %45

45:                                               ; preds = %.preheader153, %45
  %.3 = phi ptr [ %48, %45 ], [ %.3.ph, %.preheader153 ]
  %46 = load i8, ptr %.3, align 1
  %47 = add i8 %46, -48
  %or.cond110 = icmp ult i8 %47, 10
  %48 = getelementptr inbounds i8, ptr %.3, i64 1
  br i1 %or.cond110, label %45, label %.critedge4, !llvm.loop !7

.critedge4:                                       ; preds = %45
  %49 = icmp eq i8 %46, 46
  br i1 %49, label %.preheader, label %.critedge6

.preheader:                                       ; preds = %.critedge4, %.preheader
  %.3.pn = phi ptr [ %.4, %.preheader ], [ %.3, %.critedge4 ]
  %.4 = getelementptr inbounds i8, ptr %.3.pn, i64 1
  %50 = load i8, ptr %.4, align 1
  %51 = add i8 %50, -48
  %or.cond111 = icmp ult i8 %51, 10
  br i1 %or.cond111, label %.preheader, label %.critedge6, !llvm.loop !8

.critedge6:                                       ; preds = %.preheader, %.critedge4
  %52 = phi i8 [ %46, %.critedge4 ], [ %50, %.preheader ]
  %.5 = phi ptr [ %.3, %.critedge4 ], [ %.4, %.preheader ]
  switch i8 %52, label %.critedge8 [
    i8 101, label %53
    i8 69, label %53
  ]

53:                                               ; preds = %.critedge6, %.critedge6
  %54 = getelementptr inbounds i8, ptr %.5, i64 1
  %55 = load i8, ptr %54, align 1
  switch i8 %55, label %.preheader152 [
    i8 45, label %56
    i8 43, label %56
  ]

56:                                               ; preds = %53, %53
  %57 = getelementptr inbounds i8, ptr %.5, i64 2
  br label %.preheader152

.preheader152:                                    ; preds = %53, %56
  %.7.ph = phi ptr [ %54, %53 ], [ %57, %56 ]
  br label %58

58:                                               ; preds = %.preheader152, %58
  %.7 = phi ptr [ %61, %58 ], [ %.7.ph, %.preheader152 ]
  %59 = load i8, ptr %.7, align 1
  %60 = add i8 %59, -48
  %or.cond112 = icmp ult i8 %60, 10
  %61 = getelementptr inbounds i8, ptr %.7, i64 1
  br i1 %or.cond112, label %58, label %.critedge8, !llvm.loop !9

.critedge8:                                       ; preds = %58, %.critedge6
  %.8 = phi ptr [ %.5, %.critedge6 ], [ %.7, %58 ]
  store ptr %.8, ptr %3, align 8
  br label %71

62:                                               ; preds = %40
  %63 = and i8 %31, -33
  %64 = add i8 %63, -65
  %or.cond122 = icmp ult i8 %64, 26
  br i1 %or.cond122, label %.critedge10, label %.thread120

.critedge10:                                      ; preds = %62, %.critedge10
  %.0.pn = phi ptr [ %.9, %.critedge10 ], [ %.0, %62 ]
  %.9 = getelementptr inbounds i8, ptr %.0.pn, i64 1
  %65 = load i8, ptr %.9, align 1
  %66 = and i8 %65, -33
  %67 = add i8 %66, -65
  %or.cond123 = icmp ult i8 %67, 26
  br i1 %or.cond123, label %.critedge10, label %.critedge12, !llvm.loop !10

.critedge12:                                      ; preds = %.critedge10
  store ptr %.9, ptr %3, align 8
  br label %71

.thread120:                                       ; preds = %62, %36
  %68 = getelementptr inbounds i8, ptr %.0, i64 1
  store ptr %68, ptr %3, align 8
  %69 = load i8, ptr %.0, align 1
  %70 = sext i8 %69 to i32
  br label %71

71:                                               ; preds = %.thread120, %.critedge12, %.critedge8, %34, %33, %25, %12
  %.088 = phi i32 [ -1, %12 ], [ %28, %25 ], [ -1, %33 ], [ 284, %34 ], [ 285, %.critedge8 ], [ 286, %.critedge12 ], [ %70, %.thread120 ]
  ret i32 %.088
}